target datalayout = "e-m:e-p270:32:32-p271:32:32-p272:64:64-i64:64-i128:128-f80:128-n8:16:32:64-S128"
target triple = "x86_64-pc-linux-gnu"

%class.Metadata = type { ptr }
%class.AccessFlags = type { i32 }
%class.methodHandle = type { ptr, ptr }
%class.Relocator = type { ptr, i32, i32, ptr, i32, %class.methodHandle, [3 x i8], ptr, ptr }
%class.Method = type { %class.Metadata, ptr, ptr, ptr, ptr, %class.AccessFlags, i32, %class.MethodFlags, i16, %class.JfrTraceFlag, ptr, ptr, ptr, ptr }
%class.MethodFlags = type { i32 }
%class.JfrTraceFlag = type { i16 }
%class.ConstMethod = type <{ i64, ptr, ptr, i32, %class.ConstMethodFlags, i8, i8, i16, i16, i16, i16, i16, i16, i16, i16, i16, [4 x i8] }>
%class.ConstMethodFlags = type { i32 }

@g_assert_poison = external global ptr, align 8
@.str = private unnamed_addr constant [40 x i8] c"src/hotspot/share/runtime/relocator.cpp\00", align 1

; Function Attrs: mustprogress nounwind uwtable
define linkonce_odr hidden noundef ptr @_ZNK11ConstMethod9code_baseEv(ptr noundef nonnull align 8 dereferenceable(52) %0) #1 comdat align 2 {
  %2 = alloca ptr, align 8
  store ptr %0, ptr %2, align 8
  %3 = load ptr, ptr %2, align 8
  %4 = getelementptr inbounds %class.ConstMethod, ptr %3, i64 1
  ret ptr %4
}

; Function Attrs: mustprogress nounwind uwtable
define linkonce_odr hidden void @_ZN9Relocator21set_code_array_lengthEi(ptr noundef nonnull align 8 dereferenceable(72) %0, i32 noundef %1) #1 comdat align 2 {
  %3 = alloca ptr, align 8
  %4 = alloca i32, align 4
  store ptr %0, ptr %3, align 8
  store i32 %1, ptr %4, align 4
  %5 = load ptr, ptr %3, align 8
  %6 = load i32, ptr %4, align 4
  %7 = getelementptr inbounds %class.Relocator, ptr %5, i32 0, i32 1
  store i32 %6, ptr %7, align 8
  ret void
}

; Function Attrs: mustprogress nounwind uwtable
define linkonce_odr hidden noundef ptr @_ZNK6Method9code_baseEv(ptr noundef nonnull align 8 dereferenceable(88) %0) #1 comdat align 2 {
  %2 = alloca ptr, align 8
  store ptr %0, ptr %2, align 8
  %3 = load ptr, ptr %2, align 8
  %4 = call noundef ptr @_ZNK6Method11constMethodEv(ptr noundef nonnull align 8 dereferenceable(88) %3)
  %5 = call noundef ptr @_ZNK11ConstMethod9code_baseEv(ptr noundef nonnull align 8 dereferenceable(52) %4)
  ret ptr %5
}

; Function Attrs: mustprogress nounwind uwtable
define linkonce_odr hidden noundef ptr @_ZNK9Relocator10code_arrayEv(ptr noundef nonnull align 8 dereferenceable(72) %0) #1 comdat align 2 {
  %2 = alloca ptr, align 8
  store ptr %0, ptr %2, align 8
  %3 = load ptr, ptr %2, align 8
  %4 = getelementptr inbounds %class.Relocator, ptr %3, i32 0, i32 0
  %5 = load ptr, ptr %4, align 8
  ret ptr %5
}

; Function Attrs: mustprogress nounwind uwtable
define linkonce_odr hidden noundef i32 @_Z4MAX2IiET_S0_S0_(i32 noundef %0, i32 noundef %1) #1 comdat {
  %3 = alloca i32, align 4
  %4 = alloca i32, align 4
  store i32 %0, ptr %3, align 4
  store i32 %1, ptr %4, align 4
  %5 = load i32, ptr %3, align 4
  %6 = load i32, ptr %4, align 4
  %7 = icmp sgt i32 %5, %6
  br i1 %7, label %8, label %10

8:                                                ; preds = %2
  %9 = load i32, ptr %3, align 4
  br label %12

10:                                               ; preds = %2
  %11 = load i32, ptr %4, align 4
  br label %12

12:                                               ; preds = %10, %8
  %13 = phi i32 [ %9, %8 ], [ %11, %10 ]
  ret i32 %13
}

; Function Attrs: mustprogress nounwind uwtable
define linkonce_odr hidden noundef i32 @_ZNK9Relocator13code_slop_pctEv(ptr noundef nonnull align 8 dereferenceable(72) %0) #1 comdat align 2 {
  %2 = alloca ptr, align 8
  store ptr %0, ptr %2, align 8
  ret i32 25
}

; Function Attrs: mustprogress nounwind uwtable
define linkonce_odr hidden noundef i32 @_ZNK9Relocator11code_lengthEv(ptr noundef nonnull align 8 dereferenceable(72) %0) #1 comdat align 2 {
  %2 = alloca ptr, align 8
  store ptr %0, ptr %2, align 8
  %3 = load ptr, ptr %2, align 8
  %4 = getelementptr inbounds %class.Relocator, ptr %3, i32 0, i32 2
  %5 = load i32, ptr %4, align 4
  ret i32 %5
}

; Function Attrs: mustprogress nounwind uwtable
define linkonce_odr hidden noundef zeroext i16 @_ZNK11ConstMethod9code_sizeEv(ptr noundef nonnull align 8 dereferenceable(52) %0) #1 comdat align 2 {
  %2 = alloca ptr, align 8
  store ptr %0, ptr %2, align 8
  %3 = load ptr, ptr %2, align 8
  %4 = getelementptr inbounds %class.ConstMethod, ptr %3, i32 0, i32 7
  %5 = load i16, ptr %4, align 2
  ret i16 %5
}

; Function Attrs: mustprogress nounwind uwtable
define linkonce_odr hidden noundef ptr @_ZNK6Method11constMethodEv(ptr noundef nonnull align 8 dereferenceable(88) %0) #1 comdat align 2 {
  %2 = alloca ptr, align 8
  store ptr %0, ptr %2, align 8
  %3 = load ptr, ptr %2, align 8
  %4 = getelementptr inbounds %class.Method, ptr %3, i32 0, i32 1
  %5 = load ptr, ptr %4, align 8
  ret ptr %5
}

; Function Attrs: mustprogress nounwind uwtable
define linkonce_odr hidden noundef ptr @_ZNK12methodHandle12non_null_objEv(ptr noundef nonnull align 8 dereferenceable(16) %0) #1 comdat align 2 {
  %2 = alloca ptr, align 8
  store ptr %0, ptr %2, align 8
  %3 = load ptr, ptr %2, align 8
  %4 = getelementptr inbounds %class.methodHandle, ptr %3, i32 0, i32 0
  %5 = load ptr, ptr %4, align 8
  ret ptr %5
}

; Function Attrs: mustprogress nounwind uwtable
define linkonce_odr hidden void @_ZN9Relocator37set_compressed_line_number_table_sizeEi(ptr noundef nonnull align 8 dereferenceable(72) %0, i32 noundef %1) #1 comdat align 2 {
  %3 = alloca ptr, align 8
  %4 = alloca i32, align 4
  store ptr %0, ptr %3, align 8
  store i32 %1, ptr %4, align 4
  %5 = load ptr, ptr %3, align 8
  %6 = load i32, ptr %4, align 4
  %7 = getelementptr inbounds %class.Relocator, ptr %5, i32 0, i32 4
  store i32 %6, ptr %7, align 8
  ret void
}

; Function Attrs: mustprogress nounwind uwtable
define linkonce_odr hidden void @_ZN9Relocator32set_compressed_line_number_tableEPh(ptr noundef nonnull align 8 dereferenceable(72) %0, ptr noundef %1) #1 comdat align 2 {
  %3 = alloca ptr, align 8
  %4 = alloca ptr, align 8
  store ptr %0, ptr %3, align 8
  store ptr %1, ptr %4, align 8
  %5 = load ptr, ptr %3, align 8
  %6 = load ptr, ptr %4, align 8
  %7 = getelementptr inbounds %class.Relocator, ptr %5, i32 0, i32 3
  store ptr %6, ptr %7, align 8
  ret void
}

; Function Attrs: mustprogress nounwind uwtable
define hidden noundef zeroext i1 @_ZN9Relocator17expand_code_arrayEi(ptr noundef nonnull align 8 dereferenceable(72) %0, i32 noundef %1) #1 align 2 {
  %3 = alloca i1, align 1
  %4 = alloca ptr, align 8
  %5 = alloca i32, align 4
  %6 = alloca i32, align 4
  %7 = alloca ptr, align 8
  %8 = alloca %class.methodHandle, align 8
  store ptr %0, ptr %4, align 8
  store i32 %1, ptr %5, align 4
  %9 = load ptr, ptr %4, align 8
  %10 = call noundef i32 @_ZNK9Relocator11code_lengthEv(ptr noundef nonnull align 8 dereferenceable(72) %9)
  %11 = load i32, ptr %5, align 4
  %12 = add nsw i32 %10, %11
  %13 = call noundef i32 @_ZNK9Relocator11code_lengthEv(ptr noundef nonnull align 8 dereferenceable(72) %9)
  %14 = call noundef i32 @_ZNK9Relocator13code_slop_pctEv(ptr noundef nonnull align 8 dereferenceable(72) %9)
  %15 = add nsw i32 100, %14
  %16 = mul nsw i32 %13, %15
  %17 = sdiv i32 %16, 100
  %18 = call noundef i32 @_Z4MAX2IiET_S0_S0_(i32 noundef %12, i32 noundef %17)
  store i32 %18, ptr %6, align 4
  %19 = load i32, ptr %6, align 4
  %20 = icmp sgt i32 %19, 65535
  br i1 %20, label %21, label %30

21:                                               ; preds = %2
  %22 = load i32, ptr %5, align 4
  %23 = icmp eq i32 %22, 0
  br i1 %23, label %24, label %28

24:                                               ; preds = %21
  %25 = call noundef i32 @_ZNK9Relocator11code_lengthEv(ptr noundef nonnull align 8 dereferenceable(72) %9)
  %26 = icmp sle i32 %25, 65535
  br i1 %26, label %27, label %28

27:                                               ; preds = %24
  store i32 65535, ptr %6, align 4
  br label %29

28:                                               ; preds = %24, %21
  store i1 false, ptr %3, align 1
  br label %55

29:                                               ; preds = %27
  br label %30

30:                                               ; preds = %29, %2
  %31 = load i32, ptr %6, align 4
  %32 = sext i32 %31 to i64
  %33 = mul i64 %32, 1
  %34 = call noundef ptr @_Z23resource_allocate_bytesmN17AllocFailStrategy13AllocFailEnumE(i64 noundef %33, i32 noundef 0)
  store ptr %34, ptr %7, align 8
  %35 = load ptr, ptr %7, align 8
  %36 = icmp ne ptr %35, null
  br i1 %36, label %38, label %37

37:                                               ; preds = %30
  store i1 false, ptr %3, align 1
  br label %55

38:                                               ; preds = %30
  %39 = call noundef ptr @_ZNK9Relocator10code_arrayEv(ptr noundef nonnull align 8 dereferenceable(72) %9)
  %40 = icmp ne ptr %39, null
  br i1 %40, label %41, label %46

41:                                               ; preds = %38
  %42 = load ptr, ptr %7, align 8
  %43 = call noundef ptr @_ZNK9Relocator10code_arrayEv(ptr noundef nonnull align 8 dereferenceable(72) %9)
  %44 = call noundef i32 @_ZNK9Relocator11code_lengthEv(ptr noundef nonnull align 8 dereferenceable(72) %9)
  %45 = sext i32 %44 to i64
  call void @llvm.memcpy.p0.p0.i64(ptr align 1 %42, ptr align 1 %43, i64 %45, i1 false)
  br label %52

46:                                               ; preds = %38
  %47 = load ptr, ptr %7, align 8
  call void @_ZNK9Relocator6methodEv(ptr dead_on_unwind writable sret(%class.methodHandle) align 8 %8, ptr noundef nonnull align 8 dereferenceable(72) %9)
  %48 = call noundef ptr @_ZNK12methodHandleptEv(ptr noundef nonnull align 8 dereferenceable(16) %8)
  %49 = call noundef ptr @_ZNK6Method9code_baseEv(ptr noundef nonnull align 8 dereferenceable(88) %48)
  %50 = call noundef i32 @_ZNK9Relocator11code_lengthEv(ptr noundef nonnull align 8 dereferenceable(72) %9)
  %51 = sext i32 %50 to i64
  call void @llvm.memcpy.p0.p0.i64(ptr align 1 %47, ptr align 1 %49, i64 %51, i1 false)
  call void @_ZN12methodHandleD1Ev(ptr noundef nonnull align 8 dereferenceable(16) %8) #8
  br label %52

52:                                               ; preds = %46, %41
  %53 = load ptr, ptr %7, align 8
  call void @_ZN9Relocator14set_code_arrayEPh(ptr noundef nonnull align 8 dereferenceable(72) %9, ptr noundef %53)
  %54 = load i32, ptr %6, align 4
  call void @_ZN9Relocator21set_code_array_lengthEi(ptr noundef nonnull align 8 dereferenceable(72) %9, i32 noundef %54)
  store i1 true, ptr %3, align 1
  br label %55

55:                                               ; preds = %52, %37, %28
  %56 = load i1, ptr %3, align 1
  ret i1 %56
}

; Function Attrs: mustprogress nounwind uwtable
define linkonce_odr hidden void @_ZN9Relocator14set_code_arrayEPh(ptr noundef nonnull align 8 dereferenceable(72) %0, ptr noundef %1) #1 comdat align 2 {
  %3 = alloca ptr, align 8
  %4 = alloca ptr, align 8
  store ptr %0, ptr %3, align 8
  store ptr %1, ptr %4, align 8
  %5 = load ptr, ptr %3, align 8
  %6 = load ptr, ptr %4, align 8
  %7 = getelementptr inbounds %class.Relocator, ptr %5, i32 0, i32 0
  store ptr %6, ptr %7, align 8
  ret void
}

; Function Attrs: mustprogress nounwind uwtable
define linkonce_odr hidden void @_ZN9Relocator15set_code_lengthEi(ptr noundef nonnull align 8 dereferenceable(72) %0, i32 noundef %1) #1 comdat align 2 {
  %3 = alloca ptr, align 8
  %4 = alloca i32, align 4
  store ptr %0, ptr %3, align 8
  store i32 %1, ptr %4, align 4
  %5 = load ptr, ptr %3, align 8
  %6 = load i32, ptr %4, align 4
  %7 = getelementptr inbounds %class.Relocator, ptr %5, i32 0, i32 2
  store i32 %6, ptr %7, align 4
  ret void
}

; Function Attrs: mustprogress nounwind uwtable
define linkonce_odr hidden noundef zeroext i16 @_ZNK6Method9code_sizeEv(ptr noundef nonnull align 8 dereferenceable(88) %0) #1 comdat align 2 {
  %2 = alloca ptr, align 8
  store ptr %0, ptr %2, align 8
  %3 = load ptr, ptr %2, align 8
  %4 = call noundef ptr @_ZNK6Method11constMethodEv(ptr noundef nonnull align 8 dereferenceable(88) %3)
  %5 = call noundef zeroext i16 @_ZNK11ConstMethod9code_sizeEv(ptr noundef nonnull align 8 dereferenceable(52) %4)
  ret i16 %5
}

; Function Attrs: mustprogress nounwind uwtable
define linkonce_odr hidden noundef ptr @_ZNK12methodHandleptEv(ptr noundef nonnull align 8 dereferenceable(16) %0) #1 comdat align 2 {
  %2 = alloca ptr, align 8
  store ptr %0, ptr %2, align 8
  %3 = load ptr, ptr %2, align 8
  %4 = call noundef ptr @_ZNK12methodHandle12non_null_objEv(ptr noundef nonnull align 8 dereferenceable(16) %3)
  ret ptr %4
}

; Function Attrs: mustprogress nounwind uwtable
define linkonce_odr hidden void @_ZNK9Relocator6methodEv(ptr dead_on_unwind noalias writable sret(%class.methodHandle) align 8 %0, ptr noundef nonnull align 8 dereferenceable(72) %1) #1 comdat align 2 {
  %3 = alloca ptr, align 8
  %4 = alloca ptr, align 8
  store ptr %0, ptr %3, align 8
  store ptr %1, ptr %4, align 8
  %5 = load ptr, ptr %4, align 8
  %6 = getelementptr inbounds %class.Relocator, ptr %5, i32 0, i32 5
  call void @_ZN12methodHandleC1ERKS_(ptr noundef nonnull align 8 dereferenceable(16) %0, ptr noundef nonnull align 8 dereferenceable(16) %6)
  ret void
}

; Function Attrs: mustprogress nounwind uwtable
define linkonce_odr hidden void @_ZN9Relocator10set_methodERK12methodHandle(ptr noundef nonnull align 8 dereferenceable(72) %0, ptr noundef nonnull align 8 dereferenceable(16) %1) #1 comdat align 2 {
  %3 = alloca ptr, align 8
  %4 = alloca ptr, align 8
  store ptr %0, ptr %3, align 8
  store ptr %1, ptr %4, align 8
  %5 = load ptr, ptr %3, align 8
  %6 = load ptr, ptr %4, align 8
  %7 = getelementptr inbounds %class.Relocator, ptr %5, i32 0, i32 5
  %8 = call noundef nonnull align 8 dereferenceable(16) ptr @_ZN12methodHandleaSERKS_(ptr noundef nonnull align 8 dereferenceable(16) %7, ptr noundef nonnull align 8 dereferenceable(16) %6)
  ret void
}

; Function Attrs: mustprogress nounwind uwtable
define linkonce_odr hidden void @_ZN12methodHandleC2Ev(ptr noundef nonnull align 8 dereferenceable(16) %0) unnamed_addr #1 comdat align 2 {
  %2 = alloca ptr, align 8
  store ptr %0, ptr %2, align 8
  %3 = load ptr, ptr %2, align 8
  %4 = getelementptr inbounds %class.methodHandle, ptr %3, i32 0, i32 0
  store ptr null, ptr %4, align 8
  %5 = getelementptr inbounds %class.methodHandle, ptr %3, i32 0, i32 1
  store ptr null, ptr %5, align 8
  ret void
}

; Function Attrs: mustprogress nounwind uwtable
define hidden void @_ZN9RelocatorC2ERK12methodHandleP17RelocatorListener(ptr noundef nonnull align 8 dereferenceable(72) %0, ptr noundef nonnull align 8 dereferenceable(16) %1, ptr noundef %2) unnamed_addr #1 align 2 {
  %4 = alloca ptr, align 8
  %5 = alloca ptr, align 8
  %6 = alloca ptr, align 8
  %7 = alloca %class.methodHandle, align 8
  store ptr %0, ptr %4, align 8
  store ptr %1, ptr %5, align 8
  store ptr %2, ptr %6, align 8
  %8 = load ptr, ptr %4, align 8
  %9 = getelementptr inbounds %class.Relocator, ptr %8, i32 0, i32 5
  call void @_ZN12methodHandleC2Ev(ptr noundef nonnull align 8 dereferenceable(16) %9)
  %10 = load ptr, ptr %5, align 8
  call void @_ZN9Relocator10set_methodERK12methodHandle(ptr noundef nonnull align 8 dereferenceable(72) %8, ptr noundef nonnull align 8 dereferenceable(16) %10)
  call void @_ZNK9Relocator6methodEv(ptr dead_on_unwind writable sret(%class.methodHandle) align 8 %7, ptr noundef nonnull align 8 dereferenceable(72) %8)
  %11 = call noundef ptr @_ZNK12methodHandleptEv(ptr noundef nonnull align 8 dereferenceable(16) %7)
  %12 = call noundef zeroext i16 @_ZNK6Method9code_sizeEv(ptr noundef nonnull align 8 dereferenceable(88) %11)
  %13 = zext i16 %12 to i32
  call void @_ZN9Relocator15set_code_lengthEi(ptr noundef nonnull align 8 dereferenceable(72) %8, i32 noundef %13)
  call void @_ZN12methodHandleD1Ev(ptr noundef nonnull align 8 dereferenceable(16) %7) #8
  call void @_ZN9Relocator14set_code_arrayEPh(ptr noundef nonnull align 8 dereferenceable(72) %8, ptr noundef null)
  %14 = call noundef zeroext i1 @_ZN9Relocator17expand_code_arrayEi(ptr noundef nonnull align 8 dereferenceable(72) %8, i32 noundef 0)
  br i1 %14, label %19, label %15

15:                                               ; preds = %3
  br label %16

16:                                               ; preds = %15
  %17 = load ptr, ptr @g_assert_poison, align 8
  store i8 88, ptr %17, align 1
  call void @_Z28report_should_not_reach_herePKci(ptr noundef @.str, i32 noundef 131) #9
  unreachable

18:                                               ; No predecessors!
  br label %19

19:                                               ; preds = %18, %3
  call void @_ZN9Relocator32set_compressed_line_number_tableEPh(ptr noundef nonnull align 8 dereferenceable(72) %8, ptr noundef null)
  call void @_ZN9Relocator37set_compressed_line_number_table_sizeEi(ptr noundef nonnull align 8 dereferenceable(72) %8, i32 noundef 0)
  %20 = load ptr, ptr %6, align 8
  %21 = getelementptr inbounds %class.Relocator, ptr %8, i32 0, i32 8
  store ptr %20, ptr %21, align 8
  ret void
}