; Function Attrs: mustprogress nounwind uwtable
define hidden void @_ZN9RelocatorC2ERK12methodHandleP17RelocatorListener(ptr noundef nonnull align 8 dereferenceable(72) %0, ptr noundef nonnull align 8 dereferenceable(16) %1, ptr noundef %2) unnamed_addr #0 align 2 {
  %4 = alloca %class.methodHandle, align 8
  %5 = alloca %class.methodHandle, align 8
  %6 = getelementptr inbounds i8, ptr %0, i64 32
  tail call void @llvm.memset.p0.i64(ptr noundef nonnull align 8 dereferenceable(16) %6, i8 0, i64 16, i1 false)
  %7 = tail call noundef nonnull align 8 dereferenceable(16) ptr @_ZN12methodHandleaSERKS_(ptr noundef nonnull align 8 dereferenceable(16) %6, ptr noundef nonnull align 8 dereferenceable(16) %1) #10
  call void @_ZN12methodHandleC1ERKS_(ptr noundef nonnull align 8 dereferenceable(16) %5, ptr noundef nonnull align 8 dereferenceable(16) %6) #10
  %8 = load ptr, ptr %5, align 8
  %9 = getelementptr inbounds i8, ptr %8, i64 8
  %10 = load ptr, ptr %9, align 8
  %11 = getelementptr inbounds i8, ptr %10, i64 34
  %12 = load i16, ptr %11, align 2
  %13 = zext i16 %12 to i32
  %14 = getelementptr inbounds i8, ptr %0, i64 12
  store i32 %13, ptr %14, align 4
  call void @_ZN12methodHandleD1Ev(ptr noundef nonnull align 8 dereferenceable(16) %5) #10
  store ptr null, ptr %0, align 8
  call void @llvm.lifetime.start.p0(i64 16, ptr nonnull %4)
  %15 = load i32, ptr %14, align 4
  %16 = mul nsw i32 %15, 125
  %17 = sdiv i32 %16, 100
  %18 = call noundef i32 @llvm.smax.i32(i32 %15, i32 %17)
  %19 = icmp sgt i32 %18, 65535
  br i1 %19, label %20, label %22

20:                                               ; preds = %3
  %21 = icmp slt i32 %15, 65536
  br i1 %21, label %22, label %37

22:                                               ; preds = %20, %3
  %.010.i = phi i32 [ %18, %3 ], [ 65535, %20 ]
  %23 = sext i32 %.010.i to i64
  %24 = call noundef ptr @_Z23resource_allocate_bytesmN17AllocFailStrategy13AllocFailEnumE(i64 noundef %23, i32 noundef 0) #10
  %.not.i = icmp eq ptr %24, null
  br i1 %.not.i, label %37, label %25

25:                                               ; preds = %22
  %26 = load ptr, ptr %0, align 8
  %.not13.i = icmp eq ptr %26, null
  br i1 %.not13.i, label %30, label %27

27:                                               ; preds = %25
  %28 = load i32, ptr %14, align 4
  %29 = sext i32 %28 to i64
  call void @llvm.memcpy.p0.p0.i64(ptr nonnull align 1 %24, ptr nonnull align 1 %26, i64 %29, i1 false)
  br label %39

30:                                               ; preds = %25
  call void @_ZN12methodHandleC1ERKS_(ptr noundef nonnull align 8 dereferenceable(16) %4, ptr noundef nonnull align 8 dereferenceable(16) %6) #10
  %31 = load ptr, ptr %4, align 8
  %32 = getelementptr inbounds i8, ptr %31, i64 8
  %33 = load ptr, ptr %32, align 8
  %34 = getelementptr inbounds i8, ptr %33, i64 56
  %35 = load i32, ptr %14, align 4
  %36 = sext i32 %35 to i64
  call void @llvm.memcpy.p0.p0.i64(ptr nonnull align 1 %24, ptr nonnull align 1 %34, i64 %36, i1 false)
  call void @_ZN12methodHandleD1Ev(ptr noundef nonnull align 8 dereferenceable(16) %4) #10
  br label %39

37:                                               ; preds = %20, %22
  call void @llvm.lifetime.end.p0(i64 16, ptr nonnull %4)
  %38 = load ptr, ptr @g_assert_poison, align 8
  store i8 88, ptr %38, align 1
  call void @_Z28report_should_not_reach_herePKci(ptr noundef nonnull @.str, i32 noundef 131) #11
  unreachable

39:                                               ; preds = %30, %27
  store ptr %24, ptr %0, align 8
  %40 = getelementptr inbounds i8, ptr %0, i64 8
  store i32 %.010.i, ptr %40, align 8
  call void @llvm.lifetime.end.p0(i64 16, ptr nonnull %4)
  %41 = getelementptr inbounds i8, ptr %0, i64 16
  store ptr null, ptr %41, align 8
  %42 = getelementptr inbounds i8, ptr %0, i64 24
  store i32 0, ptr %42, align 8
  %43 = getelementptr inbounds i8, ptr %0, i64 64
  store ptr %2, ptr %43, align 8
  ret void
}